target datalayout = "e-m:e-p270:32:32-p271:32:32-p272:64:64-i64:64-i128:128-f80:128-n8:16:32:64-S128"
target triple = "x86_64-pc-linux-gnu"

%struct.Gia_Man_t_ = type { ptr, ptr, i32, i32, i32, i32, ptr, ptr, i32, i32, i32, ptr, ptr, %struct.Vec_Int_t_, %struct.Vec_Int_t_, i32, i32, i32, %struct.Vec_Int_t_, ptr, ptr, ptr, i32, i32, i32, i32, ptr, ptr, ptr, ptr, ptr, i32, i32, ptr, i32, ptr, ptr, ptr, ptr, ptr, ptr, ptr, ptr, ptr, ptr, ptr, ptr, ptr, ptr, ptr, ptr, ptr, ptr, %struct.Vec_Int_t_, %struct.Vec_Int_t_, ptr, ptr, ptr, ptr, ptr, ptr, ptr, ptr, ptr, ptr, ptr, ptr, ptr, ptr, ptr, ptr, ptr, ptr, ptr, ptr, ptr, i32, float, float, ptr, ptr, i32, ptr, ptr, ptr, ptr, ptr, ptr, ptr, ptr, ptr, ptr, ptr, ptr, ptr, ptr, ptr, i64, i64, ptr, ptr, i32, i32, i32, i32, i32, i32, i32, i32, i32, i32, i32, i32, ptr, ptr, ptr, ptr, ptr, ptr, ptr, ptr, i32, i32, i32, ptr, i32, i32, ptr, ptr, ptr, ptr, ptr, ptr, i32, i32, ptr, %struct.Vec_Int_t_, %struct.Vec_Int_t_, %struct.Vec_Int_t_, ptr, ptr, ptr, i32, i32, i32, i32, ptr, ptr, ptr, ptr, ptr }
%struct.Vec_Int_t_ = type { i32, i32, ptr }

; Function Attrs: inlinehint nounwind uwtable
define internal i32 @Vec_IntSize(ptr noundef %0) #4 {
  %2 = alloca ptr, align 8
  store ptr %0, ptr %2, align 8, !tbaa !45
  %3 = load ptr, ptr %2, align 8, !tbaa !45
  %4 = getelementptr inbounds nuw %struct.Vec_Int_t_, ptr %3, i32 0, i32 1
  %5 = load i32, ptr %4, align 4, !tbaa !46
  ret i32 %5
}

; Function Attrs: inlinehint nounwind uwtable
define internal i32 @Gia_ManAndNum(ptr noundef %0) #4 {
  %2 = alloca ptr, align 8
  store ptr %0, ptr %2, align 8, !tbaa !9
  %3 = load ptr, ptr %2, align 8, !tbaa !9
  %4 = getelementptr inbounds nuw %struct.Gia_Man_t_, ptr %3, i32 0, i32 4
  %5 = load i32, ptr %4, align 8, !tbaa !19
  %6 = load ptr, ptr %2, align 8, !tbaa !9
  %7 = getelementptr inbounds nuw %struct.Gia_Man_t_, ptr %6, i32 0, i32 11
  %8 = load ptr, ptr %7, align 8, !tbaa !37
  %9 = call i32 @Vec_IntSize(ptr noundef %8)
  %10 = sub nsw i32 %5, %9
  %11 = load ptr, ptr %2, align 8, !tbaa !9
  %12 = getelementptr inbounds nuw %struct.Gia_Man_t_, ptr %11, i32 0, i32 12
  %13 = load ptr, ptr %12, align 8, !tbaa !38
  %14 = call i32 @Vec_IntSize(ptr noundef %13)
  %15 = sub nsw i32 %10, %14
  %16 = sub nsw i32 %15, 1
  ret i32 %16
}

; Function Attrs: nounwind uwtable
define ptr @Gia_ManDeepSyn(ptr noundef %0, i32 noundef %1, i32 noundef %2, i32 noundef %3, i32 noundef %4, i32 noundef %5, i32 noundef %6, i32 noundef %7) #0 {
  %9 = alloca ptr, align 8
  %10 = alloca i32, align 4
  %11 = alloca i32, align 4
  %12 = alloca i32, align 4
  %13 = alloca i32, align 4
  %14 = alloca i32, align 4
  %15 = alloca i32, align 4
  %16 = alloca i32, align 4
  %17 = alloca ptr, align 8
  %18 = alloca ptr, align 8
  %19 = alloca ptr, align 8
  %20 = alloca i32, align 4
  store ptr %0, ptr %9, align 8, !tbaa !9
  store i32 %1, ptr %10, align 4, !tbaa !3
  store i32 %2, ptr %11, align 4, !tbaa !3
  store i32 %3, ptr %12, align 4, !tbaa !3
  store i32 %4, ptr %13, align 4, !tbaa !3
  store i32 %5, ptr %14, align 4, !tbaa !3
  store i32 %6, ptr %15, align 4, !tbaa !3
  store i32 %7, ptr %16, align 4, !tbaa !3
  call void @llvm.lifetime.start.p0(i64 8, ptr %17) #7
  %21 = load ptr, ptr %9, align 8, !tbaa !9
  %22 = call ptr @Gia_ManDup(ptr noundef %21)
  store ptr %22, ptr %17, align 8, !tbaa !9
  call void @llvm.lifetime.start.p0(i64 8, ptr %18) #7
  %23 = load ptr, ptr %9, align 8, !tbaa !9
  %24 = call ptr @Gia_ManDup(ptr noundef %23)
  store ptr %24, ptr %18, align 8, !tbaa !9
  call void @llvm.lifetime.start.p0(i64 8, ptr %19) #7
  call void @llvm.lifetime.start.p0(i64 4, ptr %20) #7
  store i32 0, ptr %20, align 4, !tbaa !3
  br label %25

25:                                               ; preds = %53, %8
  %26 = load i32, ptr %20, align 4, !tbaa !3
  %27 = load i32, ptr %10, align 4, !tbaa !3
  %28 = icmp slt i32 %26, %27
  br i1 %28, label %29, label %56

29:                                               ; preds = %25
  %30 = call ptr (...) @Abc_FrameGetGlobalFrame()
  %31 = load ptr, ptr %17, align 8, !tbaa !9
  %32 = call ptr @Gia_ManDup(ptr noundef %31)
  call void @Abc_FrameUpdateGia(ptr noundef %30, ptr noundef %32)
  %33 = load i32, ptr %11, align 4, !tbaa !3
  %34 = load i32, ptr %12, align 4, !tbaa !3
  %35 = load i32, ptr %13, align 4, !tbaa !3
  %36 = load i32, ptr %14, align 4, !tbaa !3
  %37 = load i32, ptr %20, align 4, !tbaa !3
  %38 = add nsw i32 %36, %37
  %39 = load i32, ptr %15, align 4, !tbaa !3
  %40 = load i32, ptr %16, align 4, !tbaa !3
  %41 = call ptr @Gia_ManDeepSynOne(i32 noundef %33, i32 noundef %34, i32 noundef %35, i32 noundef %38, i32 noundef %39, i32 noundef %40)
  store ptr %41, ptr %19, align 8, !tbaa !9
  %42 = load ptr, ptr %18, align 8, !tbaa !9
  %43 = call i32 @Gia_ManAndNum(ptr noundef %42)
  %44 = load ptr, ptr %19, align 8, !tbaa !9
  %45 = call i32 @Gia_ManAndNum(ptr noundef %44)
  %46 = icmp sgt i32 %43, %45
  br i1 %46, label %47, label %50

47:                                               ; preds = %29
  %48 = load ptr, ptr %18, align 8, !tbaa !9
  call void @Gia_ManStop(ptr noundef %48)
  %49 = load ptr, ptr %19, align 8, !tbaa !9
  store ptr %49, ptr %18, align 8, !tbaa !9
  br label %52

50:                                               ; preds = %29
  %51 = load ptr, ptr %19, align 8, !tbaa !9
  call void @Gia_ManStop(ptr noundef %51)
  br label %52

52:                                               ; preds = %50, %47
  br label %53

53:                                               ; preds = %52
  %54 = load i32, ptr %20, align 4, !tbaa !3
  %55 = add nsw i32 %54, 1
  store i32 %55, ptr %20, align 4, !tbaa !3
  br label %25, !llvm.loop !39

56:                                               ; preds = %25
  %57 = load ptr, ptr %17, align 8, !tbaa !9
  call void @Gia_ManStop(ptr noundef %57)
  %58 = load ptr, ptr %18, align 8, !tbaa !9
  call void @llvm.lifetime.end.p0(i64 4, ptr %20) #7
  call void @llvm.lifetime.end.p0(i64 8, ptr %19) #7
  call void @llvm.lifetime.end.p0(i64 8, ptr %18) #7
  call void @llvm.lifetime.end.p0(i64 8, ptr %17) #7
  ret ptr %58
}