; Function Attrs: nounwind uwtable
define ptr @Gia_ManDeepSyn(ptr noundef %0, i32 noundef %1, i32 noundef %2, i32 noundef %3, i32 noundef %4, i32 noundef %5, i32 noundef %6, i32 noundef %7) local_unnamed_addr #0 {
  %9 = tail call ptr @Gia_ManDup(ptr noundef %0) #12
  %10 = tail call ptr @Gia_ManDup(ptr noundef %0) #12
  %11 = icmp sgt i32 %1, 0
  br i1 %11, label %.lr.ph, label %._crit_edge

.lr.ph:                                           ; preds = %8, %.lr.ph
  %.024 = phi i32 [ %37, %.lr.ph ], [ 0, %8 ]
  %.01923 = phi ptr [ %..01923, %.lr.ph ], [ %10, %8 ]
  %12 = tail call ptr (...) @Abc_FrameGetGlobalFrame() #12
  %13 = tail call ptr @Gia_ManDup(ptr noundef %9) #12
  tail call void @Abc_FrameUpdateGia(ptr noundef %12, ptr noundef %13) #12
  %14 = add nsw i32 %.024, %5
  %15 = tail call ptr @Gia_ManDeepSynOne(i32 noundef %2, i32 noundef %3, i32 noundef %4, i32 noundef %14, i32 noundef %6, i32 noundef %7)
  %16 = getelementptr inbounds nuw i8, ptr %.01923, i64 24
  %17 = load i32, ptr %16, align 8, !tbaa !11
  %18 = getelementptr inbounds nuw i8, ptr %.01923, i64 64
  %19 = load ptr, ptr %18, align 8, !tbaa !33
  %20 = getelementptr i8, ptr %19, i64 4
  %.val.i = load i32, ptr %20, align 4, !tbaa !34
  %21 = getelementptr inbounds nuw i8, ptr %.01923, i64 72
  %22 = load ptr, ptr %21, align 8, !tbaa !35
  %23 = getelementptr i8, ptr %22, i64 4
  %.val3.i = load i32, ptr %23, align 4, !tbaa !34
  %24 = getelementptr inbounds nuw i8, ptr %15, i64 24
  %25 = load i32, ptr %24, align 8, !tbaa !11
  %26 = getelementptr inbounds nuw i8, ptr %15, i64 64
  %27 = load ptr, ptr %26, align 8, !tbaa !33
  %28 = getelementptr i8, ptr %27, i64 4
  %.val.i20 = load i32, ptr %28, align 4, !tbaa !34
  %29 = getelementptr inbounds nuw i8, ptr %15, i64 72
  %30 = load ptr, ptr %29, align 8, !tbaa !35
  %31 = getelementptr i8, ptr %30, i64 4
  %.val3.i21 = load i32, ptr %31, align 4, !tbaa !34
  %32 = sub i32 %.val.i, %17
  %33 = add i32 %32, %.val3.i
  %34 = sub i32 %.val.i20, %25
  %35 = add i32 %34, %.val3.i21
  %36 = icmp slt i32 %33, %35
  %.01923. = select i1 %36, ptr %.01923, ptr %15
  %..01923 = select i1 %36, ptr %15, ptr %.01923
  tail call void @Gia_ManStop(ptr noundef nonnull %.01923.) #12
  %37 = add nuw nsw i32 %.024, 1
  %exitcond.not = icmp eq i32 %37, %1
  br i1 %exitcond.not, label %._crit_edge, label %.lr.ph, !llvm.loop !43

._crit_edge:                                      ; preds = %.lr.ph, %8
  %.019.lcssa = phi ptr [ %10, %8 ], [ %..01923, %.lr.ph ]
  tail call void @Gia_ManStop(ptr noundef %9) #12
  ret ptr %.019.lcssa
}